                                      1 ;--------------------------------------------------------
                                      2 ; File Created by SDCC : free open source ANSI-C Compiler
                                      3 ; Version 3.4.0 #8981 (Sep 26 2015) (Mac OS X x86_64)
                                      4 ; This file was generated Tue Oct 13 14:47:16 2015
                                      5 ;--------------------------------------------------------
                                      6 	.module stm8l10x_i2c
                                      7 	.optsdcc -mstm8
                                      8 	
                                      9 ;--------------------------------------------------------
                                     10 ; Public variables in this module
                                     11 ;--------------------------------------------------------
                                     12 	.globl _CLK_GetClockFreq
                                     13 	.globl _I2C_DeInit
                                     14 	.globl _I2C_Init
                                     15 	.globl _I2C_Cmd
                                     16 	.globl _I2C_GeneralCallCmd
                                     17 	.globl _I2C_GenerateSTART
                                     18 	.globl _I2C_GenerateSTOP
                                     19 	.globl _I2C_SoftwareResetCmd
                                     20 	.globl _I2C_StretchClockCmd
                                     21 	.globl _I2C_AcknowledgeConfig
                                     22 	.globl _I2C_AckPositionConfig
                                     23 	.globl _I2C_FastModeDutyCycleConfig
                                     24 	.globl _I2C_Send7bitAddress
                                     25 	.globl _I2C_SendData
                                     26 	.globl _I2C_ReceiveData
                                     27 	.globl _I2C_ITConfig
                                     28 	.globl _I2C_CheckEvent
                                     29 	.globl _I2C_GetLastEvent
                                     30 	.globl _I2C_GetFlagStatus
                                     31 	.globl _I2C_ClearFlag
                                     32 	.globl _I2C_GetITStatus
                                     33 	.globl _I2C_ClearITPendingBit
                                     34 ;--------------------------------------------------------
                                     35 ; ram data
                                     36 ;--------------------------------------------------------
                                     37 	.area DATA
                                     38 ;--------------------------------------------------------
                                     39 ; ram data
                                     40 ;--------------------------------------------------------
                                     41 	.area INITIALIZED
                                     42 ;--------------------------------------------------------
                                     43 ; absolute external ram data
                                     44 ;--------------------------------------------------------
                                     45 	.area DABS (ABS)
                                     46 ;--------------------------------------------------------
                                     47 ; global & static initialisations
                                     48 ;--------------------------------------------------------
                                     49 	.area HOME
                                     50 	.area GSINIT
                                     51 	.area GSFINAL
                                     52 	.area GSINIT
                                     53 ;--------------------------------------------------------
                                     54 ; Home
                                     55 ;--------------------------------------------------------
                                     56 	.area HOME
                                     57 	.area HOME
                                     58 ;--------------------------------------------------------
                                     59 ; code
                                     60 ;--------------------------------------------------------
                                     61 	.area CODE
                                     62 ;	lib/STM8L10x_StdPeriph_Driver/src/stm8l10x_i2c.c: 122: void I2C_DeInit(void)
                                     63 ;	-----------------------------------------
                                     64 ;	 function I2C_DeInit
                                     65 ;	-----------------------------------------
      000000                         66 _I2C_DeInit:
                                     67 ;	lib/STM8L10x_StdPeriph_Driver/src/stm8l10x_i2c.c: 124: I2C->CR1 = I2C_CR1_RESET_VALUE;
      000000 AE 52 10         [ 2]   68 	ldw	x, #0x5210
      000003 7F               [ 1]   69 	clr	(x)
                                     70 ;	lib/STM8L10x_StdPeriph_Driver/src/stm8l10x_i2c.c: 125: I2C->CR2 = I2C_CR2_RESET_VALUE;
      000004 AE 52 11         [ 2]   71 	ldw	x, #0x5211
      000007 7F               [ 1]   72 	clr	(x)
                                     73 ;	lib/STM8L10x_StdPeriph_Driver/src/stm8l10x_i2c.c: 126: I2C->FREQR = I2C_FREQR_RESET_VALUE;
      000008 AE 52 12         [ 2]   74 	ldw	x, #0x5212
      00000B 7F               [ 1]   75 	clr	(x)
                                     76 ;	lib/STM8L10x_StdPeriph_Driver/src/stm8l10x_i2c.c: 127: I2C->OARL = I2C_OARL_RESET_VALUE;
      00000C AE 52 13         [ 2]   77 	ldw	x, #0x5213
      00000F 7F               [ 1]   78 	clr	(x)
                                     79 ;	lib/STM8L10x_StdPeriph_Driver/src/stm8l10x_i2c.c: 128: I2C->OARH = I2C_OARH_RESET_VALUE;
      000010 AE 52 14         [ 2]   80 	ldw	x, #0x5214
      000013 7F               [ 1]   81 	clr	(x)
                                     82 ;	lib/STM8L10x_StdPeriph_Driver/src/stm8l10x_i2c.c: 129: I2C->ITR = I2C_ITR_RESET_VALUE;
      000014 AE 52 1A         [ 2]   83 	ldw	x, #0x521a
      000017 7F               [ 1]   84 	clr	(x)
                                     85 ;	lib/STM8L10x_StdPeriph_Driver/src/stm8l10x_i2c.c: 130: I2C->CCRL = I2C_CCRL_RESET_VALUE;
      000018 AE 52 1B         [ 2]   86 	ldw	x, #0x521b
      00001B 7F               [ 1]   87 	clr	(x)
                                     88 ;	lib/STM8L10x_StdPeriph_Driver/src/stm8l10x_i2c.c: 131: I2C->CCRH = I2C_CCRH_RESET_VALUE;
      00001C AE 52 1C         [ 2]   89 	ldw	x, #0x521c
      00001F 7F               [ 1]   90 	clr	(x)
                                     91 ;	lib/STM8L10x_StdPeriph_Driver/src/stm8l10x_i2c.c: 132: I2C->TRISER = I2C_TRISER_RESET_VALUE;
      000020 AE 52 1D         [ 2]   92 	ldw	x, #0x521d
      000023 A6 02            [ 1]   93 	ld	a, #0x02
      000025 F7               [ 1]   94 	ld	(x), a
      000026 81               [ 4]   95 	ret
                                     96 ;	lib/STM8L10x_StdPeriph_Driver/src/stm8l10x_i2c.c: 157: void I2C_Init(uint32_t OutputClockFrequency, uint16_t OwnAddress,
                                     97 ;	-----------------------------------------
                                     98 ;	 function I2C_Init
                                     99 ;	-----------------------------------------
      000027                        100 _I2C_Init:
      000027 52 13            [ 2]  101 	sub	sp, #19
                                    102 ;	lib/STM8L10x_StdPeriph_Driver/src/stm8l10x_i2c.c: 163: uint8_t tmpccrh = 0;
      000029 0F 02            [ 1]  103 	clr	(0x02, sp)
                                    104 ;	lib/STM8L10x_StdPeriph_Driver/src/stm8l10x_i2c.c: 174: input_clock = (uint8_t)(CLK_GetClockFreq() / 1000000);
      00002B CDr00r00         [ 4]  105 	call	_CLK_GetClockFreq
      00002E 4B 40            [ 1]  106 	push	#0x40
      000030 4B 42            [ 1]  107 	push	#0x42
      000032 4B 0F            [ 1]  108 	push	#0x0f
      000034 4B 00            [ 1]  109 	push	#0x00
      000036 89               [ 2]  110 	pushw	x
      000037 90 89            [ 2]  111 	pushw	y
      000039 CDr00r00         [ 4]  112 	call	__divulong
      00003C 5B 08            [ 2]  113 	addw	sp, #8
      00003E 1F 09            [ 2]  114 	ldw	(0x09, sp), x
      000040 7B 0A            [ 1]  115 	ld	a, (0x0a, sp)
      000042 6B 01            [ 1]  116 	ld	(0x01, sp), a
                                    117 ;	lib/STM8L10x_StdPeriph_Driver/src/stm8l10x_i2c.c: 178: I2C->FREQR &= (uint8_t)(~I2C_FREQR_FREQ);
      000044 AE 52 12         [ 2]  118 	ldw	x, #0x5212
      000047 F6               [ 1]  119 	ld	a, (x)
      000048 A4 C0            [ 1]  120 	and	a, #0xc0
      00004A F7               [ 1]  121 	ld	(x), a
                                    122 ;	lib/STM8L10x_StdPeriph_Driver/src/stm8l10x_i2c.c: 180: I2C->FREQR |= input_clock;
      00004B AE 52 12         [ 2]  123 	ldw	x, #0x5212
      00004E F6               [ 1]  124 	ld	a, (x)
      00004F 1A 01            [ 1]  125 	or	a, (0x01, sp)
      000051 AE 52 12         [ 2]  126 	ldw	x, #0x5212
      000054 F7               [ 1]  127 	ld	(x), a
                                    128 ;	lib/STM8L10x_StdPeriph_Driver/src/stm8l10x_i2c.c: 184: I2C->CR1 &= (uint8_t)(~I2C_CR1_PE);
      000055 72 11 52 10      [ 1]  129 	bres	0x5210, #0
                                    130 ;	lib/STM8L10x_StdPeriph_Driver/src/stm8l10x_i2c.c: 187: I2C->CCRH &= (uint8_t)(~(I2C_CCRH_FS | I2C_CCRH_DUTY | I2C_CCRH_CCR));
      000059 AE 52 1C         [ 2]  131 	ldw	x, #0x521c
      00005C F6               [ 1]  132 	ld	a, (x)
      00005D A4 30            [ 1]  133 	and	a, #0x30
      00005F F7               [ 1]  134 	ld	(x), a
                                    135 ;	lib/STM8L10x_StdPeriph_Driver/src/stm8l10x_i2c.c: 188: I2C->CCRL &= (uint8_t)(~I2C_CCRL_CCR);
      000060 AE 52 1B         [ 2]  136 	ldw	x, #0x521b
      000063 F6               [ 1]  137 	ld	a, (x)
      000064 AE 52 1B         [ 2]  138 	ldw	x, #0x521b
      000067 7F               [ 1]  139 	clr	(x)
                                    140 ;	lib/STM8L10x_StdPeriph_Driver/src/stm8l10x_i2c.c: 199: result = (uint32_t) ((input_clock * 1000000) / (OutputClockFrequency * 3));
      000068 7B 01            [ 1]  141 	ld	a, (0x01, sp)
      00006A 6B 13            [ 1]  142 	ld	(0x13, sp), a
      00006C 0F 12            [ 1]  143 	clr	(0x12, sp)
      00006E 5F               [ 1]  144 	clrw	x
      00006F 16 12            [ 2]  145 	ldw	y, (0x12, sp)
      000071 90 89            [ 2]  146 	pushw	y
      000073 89               [ 2]  147 	pushw	x
      000074 4B 40            [ 1]  148 	push	#0x40
      000076 4B 42            [ 1]  149 	push	#0x42
      000078 4B 0F            [ 1]  150 	push	#0x0f
      00007A 4B 00            [ 1]  151 	push	#0x00
      00007C CDr00r00         [ 4]  152 	call	__mullong
      00007F 5B 08            [ 2]  153 	addw	sp, #8
      000081 1F 0E            [ 2]  154 	ldw	(0x0e, sp), x
      000083 17 0C            [ 2]  155 	ldw	(0x0c, sp), y
                                    156 ;	lib/STM8L10x_StdPeriph_Driver/src/stm8l10x_i2c.c: 191: if (OutputClockFrequency > I2C_MAX_STANDARD_FREQ) /* FAST MODE */
      000085 AE 86 A0         [ 2]  157 	ldw	x, #0x86a0
      000088 13 18            [ 2]  158 	cpw	x, (0x18, sp)
      00008A A6 01            [ 1]  159 	ld	a, #0x01
      00008C 12 17            [ 1]  160 	sbc	a, (0x17, sp)
      00008E 4F               [ 1]  161 	clr	a
      00008F 12 16            [ 1]  162 	sbc	a, (0x16, sp)
      000091 25 03            [ 1]  163 	jrc	00129$
      000093 CCr01r19         [ 2]  164 	jp	00109$
      000096                        165 00129$:
                                    166 ;	lib/STM8L10x_StdPeriph_Driver/src/stm8l10x_i2c.c: 194: tmpccrh = I2C_CCRH_FS;
      000096 A6 80            [ 1]  167 	ld	a, #0x80
      000098 6B 02            [ 1]  168 	ld	(0x02, sp), a
                                    169 ;	lib/STM8L10x_StdPeriph_Driver/src/stm8l10x_i2c.c: 196: if (I2C_DutyCycle == I2C_DutyCycle_2)
      00009A 0D 1C            [ 1]  170 	tnz	(0x1c, sp)
      00009C 26 25            [ 1]  171 	jrne	00102$
                                    172 ;	lib/STM8L10x_StdPeriph_Driver/src/stm8l10x_i2c.c: 199: result = (uint32_t) ((input_clock * 1000000) / (OutputClockFrequency * 3));
      00009E 1E 18            [ 2]  173 	ldw	x, (0x18, sp)
      0000A0 89               [ 2]  174 	pushw	x
      0000A1 1E 18            [ 2]  175 	ldw	x, (0x18, sp)
      0000A3 89               [ 2]  176 	pushw	x
      0000A4 4B 03            [ 1]  177 	push	#0x03
      0000A6 5F               [ 1]  178 	clrw	x
      0000A7 89               [ 2]  179 	pushw	x
      0000A8 4B 00            [ 1]  180 	push	#0x00
      0000AA CDr00r00         [ 4]  181 	call	__mullong
      0000AD 5B 08            [ 2]  182 	addw	sp, #8
      0000AF 89               [ 2]  183 	pushw	x
      0000B0 90 89            [ 2]  184 	pushw	y
      0000B2 1E 12            [ 2]  185 	ldw	x, (0x12, sp)
      0000B4 89               [ 2]  186 	pushw	x
      0000B5 1E 12            [ 2]  187 	ldw	x, (0x12, sp)
      0000B7 89               [ 2]  188 	pushw	x
      0000B8 CDr00r00         [ 4]  189 	call	__divulong
      0000BB 5B 08            [ 2]  190 	addw	sp, #8
      0000BD 1F 05            [ 2]  191 	ldw	(0x05, sp), x
      0000BF 17 03            [ 2]  192 	ldw	(0x03, sp), y
      0000C1 20 27            [ 2]  193 	jra	00103$
      0000C3                        194 00102$:
                                    195 ;	lib/STM8L10x_StdPeriph_Driver/src/stm8l10x_i2c.c: 204: result = (uint32_t) ((input_clock * 1000000) / (OutputClockFrequency * 25));
      0000C3 1E 18            [ 2]  196 	ldw	x, (0x18, sp)
      0000C5 89               [ 2]  197 	pushw	x
      0000C6 1E 18            [ 2]  198 	ldw	x, (0x18, sp)
      0000C8 89               [ 2]  199 	pushw	x
      0000C9 4B 19            [ 1]  200 	push	#0x19
      0000CB 5F               [ 1]  201 	clrw	x
      0000CC 89               [ 2]  202 	pushw	x
      0000CD 4B 00            [ 1]  203 	push	#0x00
      0000CF CDr00r00         [ 4]  204 	call	__mullong
      0000D2 5B 08            [ 2]  205 	addw	sp, #8
      0000D4 89               [ 2]  206 	pushw	x
      0000D5 90 89            [ 2]  207 	pushw	y
      0000D7 1E 12            [ 2]  208 	ldw	x, (0x12, sp)
      0000D9 89               [ 2]  209 	pushw	x
      0000DA 1E 12            [ 2]  210 	ldw	x, (0x12, sp)
      0000DC 89               [ 2]  211 	pushw	x
      0000DD CDr00r00         [ 4]  212 	call	__divulong
      0000E0 5B 08            [ 2]  213 	addw	sp, #8
      0000E2 1F 05            [ 2]  214 	ldw	(0x05, sp), x
      0000E4 17 03            [ 2]  215 	ldw	(0x03, sp), y
                                    216 ;	lib/STM8L10x_StdPeriph_Driver/src/stm8l10x_i2c.c: 206: tmpccrh |= I2C_CCRH_DUTY;
      0000E6 A6 C0            [ 1]  217 	ld	a, #0xc0
      0000E8 6B 02            [ 1]  218 	ld	(0x02, sp), a
      0000EA                        219 00103$:
                                    220 ;	lib/STM8L10x_StdPeriph_Driver/src/stm8l10x_i2c.c: 210: if (result < (uint16_t)0x0001)
      0000EA 1E 05            [ 2]  221 	ldw	x, (0x05, sp)
      0000EC A3 00 01         [ 2]  222 	cpw	x, #0x0001
      0000EF 7B 04            [ 1]  223 	ld	a, (0x04, sp)
      0000F1 A2 00            [ 1]  224 	sbc	a, #0x00
      0000F3 7B 03            [ 1]  225 	ld	a, (0x03, sp)
      0000F5 A2 00            [ 1]  226 	sbc	a, #0x00
      0000F7 24 08            [ 1]  227 	jrnc	00105$
                                    228 ;	lib/STM8L10x_StdPeriph_Driver/src/stm8l10x_i2c.c: 213: result = (uint16_t)0x0001;
      0000F9 AE 00 01         [ 2]  229 	ldw	x, #0x0001
      0000FC 1F 05            [ 2]  230 	ldw	(0x05, sp), x
      0000FE 5F               [ 1]  231 	clrw	x
      0000FF 1F 03            [ 2]  232 	ldw	(0x03, sp), x
      000101                        233 00105$:
                                    234 ;	lib/STM8L10x_StdPeriph_Driver/src/stm8l10x_i2c.c: 219: tmpval = ((input_clock * 3) / 10) + 1;
      000101 7B 01            [ 1]  235 	ld	a, (0x01, sp)
      000103 97               [ 1]  236 	ld	xl, a
      000104 A6 03            [ 1]  237 	ld	a, #0x03
      000106 42               [ 4]  238 	mul	x, a
      000107 4B 0A            [ 1]  239 	push	#0x0a
      000109 4B 00            [ 1]  240 	push	#0x00
      00010B 89               [ 2]  241 	pushw	x
      00010C CDr00r00         [ 4]  242 	call	__divsint
      00010F 5B 04            [ 2]  243 	addw	sp, #4
      000111 5C               [ 2]  244 	incw	x
      000112 9F               [ 1]  245 	ld	a, xl
                                    246 ;	lib/STM8L10x_StdPeriph_Driver/src/stm8l10x_i2c.c: 220: I2C->TRISER = (uint8_t)tmpval;
      000113 AE 52 1D         [ 2]  247 	ldw	x, #0x521d
      000116 F7               [ 1]  248 	ld	(x), a
      000117 20 39            [ 2]  249 	jra	00110$
      000119                        250 00109$:
                                    251 ;	lib/STM8L10x_StdPeriph_Driver/src/stm8l10x_i2c.c: 226: result = (uint16_t)((input_clock * 1000000) / (OutputClockFrequency << (uint8_t)1));
      000119 16 18            [ 2]  252 	ldw	y, (0x18, sp)
      00011B 1E 16            [ 2]  253 	ldw	x, (0x16, sp)
      00011D 90 58            [ 2]  254 	sllw	y
      00011F 59               [ 2]  255 	rlcw	x
      000120 90 89            [ 2]  256 	pushw	y
      000122 89               [ 2]  257 	pushw	x
      000123 1E 12            [ 2]  258 	ldw	x, (0x12, sp)
      000125 89               [ 2]  259 	pushw	x
      000126 1E 12            [ 2]  260 	ldw	x, (0x12, sp)
      000128 89               [ 2]  261 	pushw	x
      000129 CDr00r00         [ 4]  262 	call	__divulong
      00012C 5B 08            [ 2]  263 	addw	sp, #8
      00012E 51               [ 1]  264 	exgw	x, y
      00012F 5F               [ 1]  265 	clrw	x
      000130 17 05            [ 2]  266 	ldw	(0x05, sp), y
      000132 1F 03            [ 2]  267 	ldw	(0x03, sp), x
                                    268 ;	lib/STM8L10x_StdPeriph_Driver/src/stm8l10x_i2c.c: 229: if (result < (uint16_t)0x0004)
      000134 1E 05            [ 2]  269 	ldw	x, (0x05, sp)
      000136 A3 00 04         [ 2]  270 	cpw	x, #0x0004
      000139 7B 04            [ 1]  271 	ld	a, (0x04, sp)
      00013B A2 00            [ 1]  272 	sbc	a, #0x00
      00013D 7B 03            [ 1]  273 	ld	a, (0x03, sp)
      00013F A2 00            [ 1]  274 	sbc	a, #0x00
      000141 24 08            [ 1]  275 	jrnc	00107$
                                    276 ;	lib/STM8L10x_StdPeriph_Driver/src/stm8l10x_i2c.c: 232: result = (uint16_t)0x0004;
      000143 AE 00 04         [ 2]  277 	ldw	x, #0x0004
      000146 1F 05            [ 2]  278 	ldw	(0x05, sp), x
      000148 5F               [ 1]  279 	clrw	x
      000149 1F 03            [ 2]  280 	ldw	(0x03, sp), x
      00014B                        281 00107$:
                                    282 ;	lib/STM8L10x_StdPeriph_Driver/src/stm8l10x_i2c.c: 238: I2C->TRISER = (uint8_t)((uint8_t)input_clock + (uint8_t)1);
      00014B 7B 01            [ 1]  283 	ld	a, (0x01, sp)
      00014D 4C               [ 1]  284 	inc	a
      00014E AE 52 1D         [ 2]  285 	ldw	x, #0x521d
      000151 F7               [ 1]  286 	ld	(x), a
      000152                        287 00110$:
                                    288 ;	lib/STM8L10x_StdPeriph_Driver/src/stm8l10x_i2c.c: 242: I2C->CCRL = (uint8_t)result;
      000152 7B 06            [ 1]  289 	ld	a, (0x06, sp)
      000154 AE 52 1B         [ 2]  290 	ldw	x, #0x521b
      000157 F7               [ 1]  291 	ld	(x), a
                                    292 ;	lib/STM8L10x_StdPeriph_Driver/src/stm8l10x_i2c.c: 243: I2C->CCRH = (uint8_t)((uint8_t)((uint8_t)((uint8_t)result >> 8) & I2C_CCRH_CCR) | tmpccrh);
      000158 AE 52 1C         [ 2]  293 	ldw	x, #0x521c
      00015B 7B 02            [ 1]  294 	ld	a, (0x02, sp)
      00015D F7               [ 1]  295 	ld	(x), a
                                    296 ;	lib/STM8L10x_StdPeriph_Driver/src/stm8l10x_i2c.c: 246: I2C->CR1 |= I2C_CR1_PE;
      00015E 72 10 52 10      [ 1]  297 	bset	0x5210, #0
                                    298 ;	lib/STM8L10x_StdPeriph_Driver/src/stm8l10x_i2c.c: 249: I2C->CR2 &= (uint8_t)(~I2C_CR2_ACK);
      000162 AE 52 11         [ 2]  299 	ldw	x, #0x5211
      000165 F6               [ 1]  300 	ld	a, (x)
      000166 A4 FB            [ 1]  301 	and	a, #0xfb
      000168 F7               [ 1]  302 	ld	(x), a
                                    303 ;	lib/STM8L10x_StdPeriph_Driver/src/stm8l10x_i2c.c: 252: I2C->CR2 |= (uint8_t)I2C_Ack;
      000169 AE 52 11         [ 2]  304 	ldw	x, #0x5211
      00016C F6               [ 1]  305 	ld	a, (x)
      00016D 1A 1D            [ 1]  306 	or	a, (0x1d, sp)
      00016F AE 52 11         [ 2]  307 	ldw	x, #0x5211
      000172 F7               [ 1]  308 	ld	(x), a
                                    309 ;	lib/STM8L10x_StdPeriph_Driver/src/stm8l10x_i2c.c: 255: I2C->OARL = (uint8_t)(OwnAddress);
      000173 7B 1B            [ 1]  310 	ld	a, (0x1b, sp)
      000175 AE 52 13         [ 2]  311 	ldw	x, #0x5213
      000178 F7               [ 1]  312 	ld	(x), a
                                    313 ;	lib/STM8L10x_StdPeriph_Driver/src/stm8l10x_i2c.c: 256: I2C->OARH = (uint8_t)((uint8_t)(I2C_AcknowledgedAddress | I2C_OARH_ADDCONF) |
      000179 7B 1E            [ 1]  314 	ld	a, (0x1e, sp)
      00017B AA 40            [ 1]  315 	or	a, #0x40
      00017D 6B 0B            [ 1]  316 	ld	(0x0b, sp), a
                                    317 ;	lib/STM8L10x_StdPeriph_Driver/src/stm8l10x_i2c.c: 257: (uint8_t)((uint16_t)( (uint16_t)OwnAddress &  (uint16_t)0x0300) >> 7));
      00017F 4F               [ 1]  318 	clr	a
      000180 97               [ 1]  319 	ld	xl, a
      000181 7B 1A            [ 1]  320 	ld	a, (0x1a, sp)
      000183 A4 03            [ 1]  321 	and	a, #0x03
      000185 95               [ 1]  322 	ld	xh, a
      000186 A6 80            [ 1]  323 	ld	a, #0x80
      000188 62               [ 2]  324 	div	x, a
      000189 9F               [ 1]  325 	ld	a, xl
      00018A 1A 0B            [ 1]  326 	or	a, (0x0b, sp)
      00018C AE 52 14         [ 2]  327 	ldw	x, #0x5214
      00018F F7               [ 1]  328 	ld	(x), a
      000190 5B 13            [ 2]  329 	addw	sp, #19
      000192 81               [ 4]  330 	ret
                                    331 ;	lib/STM8L10x_StdPeriph_Driver/src/stm8l10x_i2c.c: 266: void I2C_Cmd(FunctionalState NewState)
                                    332 ;	-----------------------------------------
                                    333 ;	 function I2C_Cmd
                                    334 ;	-----------------------------------------
      000193                        335 _I2C_Cmd:
                                    336 ;	lib/STM8L10x_StdPeriph_Driver/src/stm8l10x_i2c.c: 271: if (NewState != DISABLE)
      000193 0D 03            [ 1]  337 	tnz	(0x03, sp)
      000195 27 09            [ 1]  338 	jreq	00102$
                                    339 ;	lib/STM8L10x_StdPeriph_Driver/src/stm8l10x_i2c.c: 274: I2C->CR1 |= I2C_CR1_PE;
      000197 AE 52 10         [ 2]  340 	ldw	x, #0x5210
      00019A F6               [ 1]  341 	ld	a, (x)
      00019B AA 01            [ 1]  342 	or	a, #0x01
      00019D F7               [ 1]  343 	ld	(x), a
      00019E 20 04            [ 2]  344 	jra	00104$
      0001A0                        345 00102$:
                                    346 ;	lib/STM8L10x_StdPeriph_Driver/src/stm8l10x_i2c.c: 279: I2C->CR1 &= (uint8_t)(~I2C_CR1_PE);
      0001A0 72 11 52 10      [ 1]  347 	bres	0x5210, #0
      0001A4                        348 00104$:
      0001A4 81               [ 4]  349 	ret
                                    350 ;	lib/STM8L10x_StdPeriph_Driver/src/stm8l10x_i2c.c: 289: void I2C_GeneralCallCmd(FunctionalState NewState)
                                    351 ;	-----------------------------------------
                                    352 ;	 function I2C_GeneralCallCmd
                                    353 ;	-----------------------------------------
      0001A5                        354 _I2C_GeneralCallCmd:
                                    355 ;	lib/STM8L10x_StdPeriph_Driver/src/stm8l10x_i2c.c: 294: if (NewState != DISABLE)
      0001A5 0D 03            [ 1]  356 	tnz	(0x03, sp)
      0001A7 27 09            [ 1]  357 	jreq	00102$
                                    358 ;	lib/STM8L10x_StdPeriph_Driver/src/stm8l10x_i2c.c: 297: I2C->CR1 |= I2C_CR1_ENGC;
      0001A9 AE 52 10         [ 2]  359 	ldw	x, #0x5210
      0001AC F6               [ 1]  360 	ld	a, (x)
      0001AD AA 40            [ 1]  361 	or	a, #0x40
      0001AF F7               [ 1]  362 	ld	(x), a
      0001B0 20 07            [ 2]  363 	jra	00104$
      0001B2                        364 00102$:
                                    365 ;	lib/STM8L10x_StdPeriph_Driver/src/stm8l10x_i2c.c: 302: I2C->CR1 &= (uint8_t)(~I2C_CR1_ENGC);
      0001B2 AE 52 10         [ 2]  366 	ldw	x, #0x5210
      0001B5 F6               [ 1]  367 	ld	a, (x)
      0001B6 A4 BF            [ 1]  368 	and	a, #0xbf
      0001B8 F7               [ 1]  369 	ld	(x), a
      0001B9                        370 00104$:
      0001B9 81               [ 4]  371 	ret
                                    372 ;	lib/STM8L10x_StdPeriph_Driver/src/stm8l10x_i2c.c: 314: void I2C_GenerateSTART(FunctionalState NewState)
                                    373 ;	-----------------------------------------
                                    374 ;	 function I2C_GenerateSTART
                                    375 ;	-----------------------------------------
      0001BA                        376 _I2C_GenerateSTART:
                                    377 ;	lib/STM8L10x_StdPeriph_Driver/src/stm8l10x_i2c.c: 319: if (NewState != DISABLE)
      0001BA 0D 03            [ 1]  378 	tnz	(0x03, sp)
      0001BC 27 09            [ 1]  379 	jreq	00102$
                                    380 ;	lib/STM8L10x_StdPeriph_Driver/src/stm8l10x_i2c.c: 322: I2C->CR2 |= I2C_CR2_START;
      0001BE AE 52 11         [ 2]  381 	ldw	x, #0x5211
      0001C1 F6               [ 1]  382 	ld	a, (x)
      0001C2 AA 01            [ 1]  383 	or	a, #0x01
      0001C4 F7               [ 1]  384 	ld	(x), a
      0001C5 20 04            [ 2]  385 	jra	00104$
      0001C7                        386 00102$:
                                    387 ;	lib/STM8L10x_StdPeriph_Driver/src/stm8l10x_i2c.c: 327: I2C->CR2 &= (uint8_t)(~I2C_CR2_START);
      0001C7 72 11 52 11      [ 1]  388 	bres	0x5211, #0
      0001CB                        389 00104$:
      0001CB 81               [ 4]  390 	ret
                                    391 ;	lib/STM8L10x_StdPeriph_Driver/src/stm8l10x_i2c.c: 337: void I2C_GenerateSTOP(FunctionalState NewState)
                                    392 ;	-----------------------------------------
                                    393 ;	 function I2C_GenerateSTOP
                                    394 ;	-----------------------------------------
      0001CC                        395 _I2C_GenerateSTOP:
                                    396 ;	lib/STM8L10x_StdPeriph_Driver/src/stm8l10x_i2c.c: 342: if (NewState != DISABLE)
      0001CC 0D 03            [ 1]  397 	tnz	(0x03, sp)
      0001CE 27 09            [ 1]  398 	jreq	00102$
                                    399 ;	lib/STM8L10x_StdPeriph_Driver/src/stm8l10x_i2c.c: 345: I2C->CR2 |= I2C_CR2_STOP;
      0001D0 AE 52 11         [ 2]  400 	ldw	x, #0x5211
      0001D3 F6               [ 1]  401 	ld	a, (x)
      0001D4 AA 02            [ 1]  402 	or	a, #0x02
      0001D6 F7               [ 1]  403 	ld	(x), a
      0001D7 20 07            [ 2]  404 	jra	00104$
      0001D9                        405 00102$:
                                    406 ;	lib/STM8L10x_StdPeriph_Driver/src/stm8l10x_i2c.c: 350: I2C->CR2 &= (uint8_t)(~I2C_CR2_STOP);
      0001D9 AE 52 11         [ 2]  407 	ldw	x, #0x5211
      0001DC F6               [ 1]  408 	ld	a, (x)
      0001DD A4 FD            [ 1]  409 	and	a, #0xfd
      0001DF F7               [ 1]  410 	ld	(x), a
      0001E0                        411 00104$:
      0001E0 81               [ 4]  412 	ret
                                    413 ;	lib/STM8L10x_StdPeriph_Driver/src/stm8l10x_i2c.c: 362: void I2C_SoftwareResetCmd(FunctionalState NewState)
                                    414 ;	-----------------------------------------
                                    415 ;	 function I2C_SoftwareResetCmd
                                    416 ;	-----------------------------------------
      0001E1                        417 _I2C_SoftwareResetCmd:
                                    418 ;	lib/STM8L10x_StdPeriph_Driver/src/stm8l10x_i2c.c: 367: if (NewState != DISABLE)
      0001E1 0D 03            [ 1]  419 	tnz	(0x03, sp)
      0001E3 27 09            [ 1]  420 	jreq	00102$
                                    421 ;	lib/STM8L10x_StdPeriph_Driver/src/stm8l10x_i2c.c: 370: I2C->CR2 |= I2C_CR2_SWRST;
      0001E5 AE 52 11         [ 2]  422 	ldw	x, #0x5211
      0001E8 F6               [ 1]  423 	ld	a, (x)
      0001E9 AA 80            [ 1]  424 	or	a, #0x80
      0001EB F7               [ 1]  425 	ld	(x), a
      0001EC 20 04            [ 2]  426 	jra	00104$
      0001EE                        427 00102$:
                                    428 ;	lib/STM8L10x_StdPeriph_Driver/src/stm8l10x_i2c.c: 375: I2C->CR2 &= (uint8_t)(~I2C_CR2_SWRST);
      0001EE 72 17 52 11      [ 1]  429 	bres	0x5211, #7
      0001F2                        430 00104$:
      0001F2 81               [ 4]  431 	ret
                                    432 ;	lib/STM8L10x_StdPeriph_Driver/src/stm8l10x_i2c.c: 385: void I2C_StretchClockCmd(FunctionalState NewState)
                                    433 ;	-----------------------------------------
                                    434 ;	 function I2C_StretchClockCmd
                                    435 ;	-----------------------------------------
      0001F3                        436 _I2C_StretchClockCmd:
                                    437 ;	lib/STM8L10x_StdPeriph_Driver/src/stm8l10x_i2c.c: 390: if (NewState != DISABLE)
      0001F3 0D 03            [ 1]  438 	tnz	(0x03, sp)
      0001F5 27 09            [ 1]  439 	jreq	00102$
                                    440 ;	lib/STM8L10x_StdPeriph_Driver/src/stm8l10x_i2c.c: 393: I2C->CR1 &= (uint8_t)(~I2C_CR1_NOSTRETCH);
      0001F7 AE 52 10         [ 2]  441 	ldw	x, #0x5210
      0001FA F6               [ 1]  442 	ld	a, (x)
      0001FB A4 7F            [ 1]  443 	and	a, #0x7f
      0001FD F7               [ 1]  444 	ld	(x), a
      0001FE 20 04            [ 2]  445 	jra	00104$
      000200                        446 00102$:
                                    447 ;	lib/STM8L10x_StdPeriph_Driver/src/stm8l10x_i2c.c: 398: I2C->CR1 |= I2C_CR1_NOSTRETCH;
      000200 72 17 52 10      [ 1]  448 	bset	0x5210, #7
      000204                        449 00104$:
      000204 81               [ 4]  450 	ret
                                    451 ;	lib/STM8L10x_StdPeriph_Driver/src/stm8l10x_i2c.c: 408: void I2C_AcknowledgeConfig(FunctionalState NewState)
                                    452 ;	-----------------------------------------
                                    453 ;	 function I2C_AcknowledgeConfig
                                    454 ;	-----------------------------------------
      000205                        455 _I2C_AcknowledgeConfig:
                                    456 ;	lib/STM8L10x_StdPeriph_Driver/src/stm8l10x_i2c.c: 413: if (NewState != DISABLE)
      000205 0D 03            [ 1]  457 	tnz	(0x03, sp)
      000207 27 09            [ 1]  458 	jreq	00102$
                                    459 ;	lib/STM8L10x_StdPeriph_Driver/src/stm8l10x_i2c.c: 416: I2C->CR2 |= I2C_CR2_ACK;
      000209 AE 52 11         [ 2]  460 	ldw	x, #0x5211
      00020C F6               [ 1]  461 	ld	a, (x)
      00020D AA 04            [ 1]  462 	or	a, #0x04
      00020F F7               [ 1]  463 	ld	(x), a
      000210 20 07            [ 2]  464 	jra	00104$
      000212                        465 00102$:
                                    466 ;	lib/STM8L10x_StdPeriph_Driver/src/stm8l10x_i2c.c: 421: I2C->CR2 &= (uint8_t)(~I2C_CR2_ACK);
      000212 AE 52 11         [ 2]  467 	ldw	x, #0x5211
      000215 F6               [ 1]  468 	ld	a, (x)
      000216 A4 FB            [ 1]  469 	and	a, #0xfb
      000218 F7               [ 1]  470 	ld	(x), a
      000219                        471 00104$:
      000219 81               [ 4]  472 	ret
                                    473 ;	lib/STM8L10x_StdPeriph_Driver/src/stm8l10x_i2c.c: 434: void I2C_AckPositionConfig(I2C_AckPosition_TypeDef I2C_AckPosition)
                                    474 ;	-----------------------------------------
                                    475 ;	 function I2C_AckPositionConfig
                                    476 ;	-----------------------------------------
      00021A                        477 _I2C_AckPositionConfig:
                                    478 ;	lib/STM8L10x_StdPeriph_Driver/src/stm8l10x_i2c.c: 440: I2C->CR2 &= (uint8_t)(~I2C_CR2_POS);
      00021A AE 52 11         [ 2]  479 	ldw	x, #0x5211
      00021D F6               [ 1]  480 	ld	a, (x)
      00021E A4 F7            [ 1]  481 	and	a, #0xf7
      000220 F7               [ 1]  482 	ld	(x), a
                                    483 ;	lib/STM8L10x_StdPeriph_Driver/src/stm8l10x_i2c.c: 443: I2C->CR2 |= (uint8_t)I2C_AckPosition;
      000221 AE 52 11         [ 2]  484 	ldw	x, #0x5211
      000224 F6               [ 1]  485 	ld	a, (x)
      000225 1A 03            [ 1]  486 	or	a, (0x03, sp)
      000227 AE 52 11         [ 2]  487 	ldw	x, #0x5211
      00022A F7               [ 1]  488 	ld	(x), a
      00022B 81               [ 4]  489 	ret
                                    490 ;	lib/STM8L10x_StdPeriph_Driver/src/stm8l10x_i2c.c: 454: void I2C_FastModeDutyCycleConfig(I2C_DutyCycle_TypeDef I2C_DutyCycle)
                                    491 ;	-----------------------------------------
                                    492 ;	 function I2C_FastModeDutyCycleConfig
                                    493 ;	-----------------------------------------
      00022C                        494 _I2C_FastModeDutyCycleConfig:
                                    495 ;	lib/STM8L10x_StdPeriph_Driver/src/stm8l10x_i2c.c: 459: if (I2C_DutyCycle == I2C_DutyCycle_16_9)
      00022C 7B 03            [ 1]  496 	ld	a, (0x03, sp)
      00022E A1 40            [ 1]  497 	cp	a, #0x40
      000230 26 09            [ 1]  498 	jrne	00102$
                                    499 ;	lib/STM8L10x_StdPeriph_Driver/src/stm8l10x_i2c.c: 462: I2C->CCRH |= I2C_CCRH_DUTY;
      000232 AE 52 1C         [ 2]  500 	ldw	x, #0x521c
      000235 F6               [ 1]  501 	ld	a, (x)
      000236 AA 40            [ 1]  502 	or	a, #0x40
      000238 F7               [ 1]  503 	ld	(x), a
      000239 20 07            [ 2]  504 	jra	00104$
      00023B                        505 00102$:
                                    506 ;	lib/STM8L10x_StdPeriph_Driver/src/stm8l10x_i2c.c: 467: I2C->CCRH &= (uint8_t)(~I2C_CCRH_DUTY);
      00023B AE 52 1C         [ 2]  507 	ldw	x, #0x521c
      00023E F6               [ 1]  508 	ld	a, (x)
      00023F A4 BF            [ 1]  509 	and	a, #0xbf
      000241 F7               [ 1]  510 	ld	(x), a
      000242                        511 00104$:
      000242 81               [ 4]  512 	ret
                                    513 ;	lib/STM8L10x_StdPeriph_Driver/src/stm8l10x_i2c.c: 481: void I2C_Send7bitAddress(uint8_t Address, I2C_Direction_TypeDef I2C_Direction)
                                    514 ;	-----------------------------------------
                                    515 ;	 function I2C_Send7bitAddress
                                    516 ;	-----------------------------------------
      000243                        517 _I2C_Send7bitAddress:
                                    518 ;	lib/STM8L10x_StdPeriph_Driver/src/stm8l10x_i2c.c: 488: if (I2C_Direction != I2C_Direction_Transmitter)
      000243 0D 04            [ 1]  519 	tnz	(0x04, sp)
      000245 27 08            [ 1]  520 	jreq	00102$
                                    521 ;	lib/STM8L10x_StdPeriph_Driver/src/stm8l10x_i2c.c: 491: Address |= OAR1_ADD0_Set;
      000247 7B 03            [ 1]  522 	ld	a, (0x03, sp)
      000249 AA 01            [ 1]  523 	or	a, #0x01
      00024B 6B 03            [ 1]  524 	ld	(0x03, sp), a
      00024D 20 06            [ 2]  525 	jra	00103$
      00024F                        526 00102$:
                                    527 ;	lib/STM8L10x_StdPeriph_Driver/src/stm8l10x_i2c.c: 496: Address &= OAR1_ADD0_Reset;
      00024F 7B 03            [ 1]  528 	ld	a, (0x03, sp)
      000251 A4 FE            [ 1]  529 	and	a, #0xfe
      000253 6B 03            [ 1]  530 	ld	(0x03, sp), a
      000255                        531 00103$:
                                    532 ;	lib/STM8L10x_StdPeriph_Driver/src/stm8l10x_i2c.c: 499: I2C->DR = Address;
      000255 AE 52 16         [ 2]  533 	ldw	x, #0x5216
      000258 7B 03            [ 1]  534 	ld	a, (0x03, sp)
      00025A F7               [ 1]  535 	ld	(x), a
      00025B 81               [ 4]  536 	ret
                                    537 ;	lib/STM8L10x_StdPeriph_Driver/src/stm8l10x_i2c.c: 523: void I2C_SendData(uint8_t Data)
                                    538 ;	-----------------------------------------
                                    539 ;	 function I2C_SendData
                                    540 ;	-----------------------------------------
      00025C                        541 _I2C_SendData:
                                    542 ;	lib/STM8L10x_StdPeriph_Driver/src/stm8l10x_i2c.c: 526: I2C->DR = Data;
      00025C AE 52 16         [ 2]  543 	ldw	x, #0x5216
      00025F 7B 03            [ 1]  544 	ld	a, (0x03, sp)
      000261 F7               [ 1]  545 	ld	(x), a
      000262 81               [ 4]  546 	ret
                                    547 ;	lib/STM8L10x_StdPeriph_Driver/src/stm8l10x_i2c.c: 534: uint8_t I2C_ReceiveData(void)
                                    548 ;	-----------------------------------------
                                    549 ;	 function I2C_ReceiveData
                                    550 ;	-----------------------------------------
      000263                        551 _I2C_ReceiveData:
                                    552 ;	lib/STM8L10x_StdPeriph_Driver/src/stm8l10x_i2c.c: 537: return ((uint8_t)I2C->DR);
      000263 AE 52 16         [ 2]  553 	ldw	x, #0x5216
      000266 F6               [ 1]  554 	ld	a, (x)
      000267 81               [ 4]  555 	ret
                                    556 ;	lib/STM8L10x_StdPeriph_Driver/src/stm8l10x_i2c.c: 648: void I2C_ITConfig(I2C_IT_TypeDef I2C_IT, FunctionalState NewState)
                                    557 ;	-----------------------------------------
                                    558 ;	 function I2C_ITConfig
                                    559 ;	-----------------------------------------
      000268                        560 _I2C_ITConfig:
      000268 52 02            [ 2]  561 	sub	sp, #2
                                    562 ;	lib/STM8L10x_StdPeriph_Driver/src/stm8l10x_i2c.c: 657: I2C->ITR |= (uint8_t)I2C_IT;
      00026A 7B 06            [ 1]  563 	ld	a, (0x06, sp)
      00026C 6B 02            [ 1]  564 	ld	(0x02, sp), a
                                    565 ;	lib/STM8L10x_StdPeriph_Driver/src/stm8l10x_i2c.c: 654: if (NewState != DISABLE)
      00026E 0D 07            [ 1]  566 	tnz	(0x07, sp)
      000270 27 0C            [ 1]  567 	jreq	00102$
                                    568 ;	lib/STM8L10x_StdPeriph_Driver/src/stm8l10x_i2c.c: 657: I2C->ITR |= (uint8_t)I2C_IT;
      000272 AE 52 1A         [ 2]  569 	ldw	x, #0x521a
      000275 F6               [ 1]  570 	ld	a, (x)
      000276 1A 02            [ 1]  571 	or	a, (0x02, sp)
      000278 AE 52 1A         [ 2]  572 	ldw	x, #0x521a
      00027B F7               [ 1]  573 	ld	(x), a
      00027C 20 0F            [ 2]  574 	jra	00104$
      00027E                        575 00102$:
                                    576 ;	lib/STM8L10x_StdPeriph_Driver/src/stm8l10x_i2c.c: 662: I2C->ITR &= (uint8_t)(~(uint8_t)I2C_IT);
      00027E AE 52 1A         [ 2]  577 	ldw	x, #0x521a
      000281 F6               [ 1]  578 	ld	a, (x)
      000282 6B 01            [ 1]  579 	ld	(0x01, sp), a
      000284 7B 02            [ 1]  580 	ld	a, (0x02, sp)
      000286 43               [ 1]  581 	cpl	a
      000287 14 01            [ 1]  582 	and	a, (0x01, sp)
      000289 AE 52 1A         [ 2]  583 	ldw	x, #0x521a
      00028C F7               [ 1]  584 	ld	(x), a
      00028D                        585 00104$:
      00028D 5B 02            [ 2]  586 	addw	sp, #2
      00028F 81               [ 4]  587 	ret
                                    588 ;	lib/STM8L10x_StdPeriph_Driver/src/stm8l10x_i2c.c: 700: ErrorStatus I2C_CheckEvent(I2C_Event_TypeDef I2C_Event)
                                    589 ;	-----------------------------------------
                                    590 ;	 function I2C_CheckEvent
                                    591 ;	-----------------------------------------
      000290                        592 _I2C_CheckEvent:
      000290 52 03            [ 2]  593 	sub	sp, #3
                                    594 ;	lib/STM8L10x_StdPeriph_Driver/src/stm8l10x_i2c.c: 710: if (I2C_Event == I2C_EVENT_SLAVE_ACK_FAILURE)
      000292 1E 06            [ 2]  595 	ldw	x, (0x06, sp)
      000294 A3 00 04         [ 2]  596 	cpw	x, #0x0004
      000297 26 0A            [ 1]  597 	jrne	00102$
                                    598 ;	lib/STM8L10x_StdPeriph_Driver/src/stm8l10x_i2c.c: 713: lastevent = (uint16_t)(I2C->SR2& I2C_SR2_AF);
      000299 AE 52 18         [ 2]  599 	ldw	x, #0x5218
      00029C F6               [ 1]  600 	ld	a, (x)
      00029D A4 04            [ 1]  601 	and	a, #0x04
      00029F 97               [ 1]  602 	ld	xl, a
      0002A0 4F               [ 1]  603 	clr	a
      0002A1 20 21            [ 2]  604 	jra	00103$
      0002A3                        605 00102$:
                                    606 ;	lib/STM8L10x_StdPeriph_Driver/src/stm8l10x_i2c.c: 718: flag1 = I2C->SR1;
      0002A3 AE 52 17         [ 2]  607 	ldw	x, #0x5217
      0002A6 F6               [ 1]  608 	ld	a, (x)
      0002A7 6B 01            [ 1]  609 	ld	(0x01, sp), a
                                    610 ;	lib/STM8L10x_StdPeriph_Driver/src/stm8l10x_i2c.c: 719: flag2 = I2C->SR3;
      0002A9 AE 52 19         [ 2]  611 	ldw	x, #0x5219
      0002AC F6               [ 1]  612 	ld	a, (x)
                                    613 ;	lib/STM8L10x_StdPeriph_Driver/src/stm8l10x_i2c.c: 720: lastevent = ((uint16_t)((uint16_t)flag2 << (uint16_t)8) | (uint16_t)flag1);
      0002AD 5F               [ 1]  614 	clrw	x
      0002AE 97               [ 1]  615 	ld	xl, a
      0002AF 58               [ 2]  616 	sllw	x
      0002B0 58               [ 2]  617 	sllw	x
      0002B1 58               [ 2]  618 	sllw	x
      0002B2 58               [ 2]  619 	sllw	x
      0002B3 58               [ 2]  620 	sllw	x
      0002B4 58               [ 2]  621 	sllw	x
      0002B5 58               [ 2]  622 	sllw	x
      0002B6 58               [ 2]  623 	sllw	x
      0002B7 7B 01            [ 1]  624 	ld	a, (0x01, sp)
      0002B9 6B 03            [ 1]  625 	ld	(0x03, sp), a
      0002BB 0F 02            [ 1]  626 	clr	(0x02, sp)
      0002BD 9F               [ 1]  627 	ld	a, xl
      0002BE 1A 03            [ 1]  628 	or	a, (0x03, sp)
      0002C0 97               [ 1]  629 	ld	xl, a
      0002C1 9E               [ 1]  630 	ld	a, xh
      0002C2 1A 02            [ 1]  631 	or	a, (0x02, sp)
      0002C4                        632 00103$:
                                    633 ;	lib/STM8L10x_StdPeriph_Driver/src/stm8l10x_i2c.c: 724: if (((uint16_t)lastevent & (uint16_t)I2C_Event) == (uint16_t)I2C_Event)
      0002C4 14 06            [ 1]  634 	and	a, (0x06, sp)
      0002C6 95               [ 1]  635 	ld	xh, a
      0002C7 9F               [ 1]  636 	ld	a, xl
      0002C8 14 07            [ 1]  637 	and	a, (0x07, sp)
      0002CA 97               [ 1]  638 	ld	xl, a
      0002CB 13 06            [ 2]  639 	cpw	x, (0x06, sp)
      0002CD 26 04            [ 1]  640 	jrne	00105$
                                    641 ;	lib/STM8L10x_StdPeriph_Driver/src/stm8l10x_i2c.c: 727: status = SUCCESS;
      0002CF A6 01            [ 1]  642 	ld	a, #0x01
      0002D1 20 01            [ 2]  643 	jra	00106$
      0002D3                        644 00105$:
                                    645 ;	lib/STM8L10x_StdPeriph_Driver/src/stm8l10x_i2c.c: 732: status = ERROR;
      0002D3 4F               [ 1]  646 	clr	a
      0002D4                        647 00106$:
                                    648 ;	lib/STM8L10x_StdPeriph_Driver/src/stm8l10x_i2c.c: 736: return status;
      0002D4 5B 03            [ 2]  649 	addw	sp, #3
      0002D6 81               [ 4]  650 	ret
                                    651 ;	lib/STM8L10x_StdPeriph_Driver/src/stm8l10x_i2c.c: 754: I2C_Event_TypeDef I2C_GetLastEvent(void)
                                    652 ;	-----------------------------------------
                                    653 ;	 function I2C_GetLastEvent
                                    654 ;	-----------------------------------------
      0002D7                        655 _I2C_GetLastEvent:
      0002D7 52 06            [ 2]  656 	sub	sp, #6
                                    657 ;	lib/STM8L10x_StdPeriph_Driver/src/stm8l10x_i2c.c: 756: __IO uint16_t lastevent = 0;
      0002D9 5F               [ 1]  658 	clrw	x
      0002DA 1F 03            [ 2]  659 	ldw	(0x03, sp), x
                                    660 ;	lib/STM8L10x_StdPeriph_Driver/src/stm8l10x_i2c.c: 760: if ((I2C->SR2 & I2C_SR2_AF) != 0x00)
      0002DC AE 52 18         [ 2]  661 	ldw	x, #0x5218
      0002DF F6               [ 1]  662 	ld	a, (x)
      0002E0 A5 04            [ 1]  663 	bcp	a, #0x04
      0002E2 27 07            [ 1]  664 	jreq	00102$
                                    665 ;	lib/STM8L10x_StdPeriph_Driver/src/stm8l10x_i2c.c: 762: lastevent = I2C_EVENT_SLAVE_ACK_FAILURE;
      0002E4 AE 00 04         [ 2]  666 	ldw	x, #0x0004
      0002E7 1F 03            [ 2]  667 	ldw	(0x03, sp), x
      0002E9 20 24            [ 2]  668 	jra	00103$
      0002EB                        669 00102$:
                                    670 ;	lib/STM8L10x_StdPeriph_Driver/src/stm8l10x_i2c.c: 767: flag1 = I2C->SR1;
      0002EB AE 52 17         [ 2]  671 	ldw	x, #0x5217
      0002EE F6               [ 1]  672 	ld	a, (x)
      0002EF 5F               [ 1]  673 	clrw	x
      0002F0 97               [ 1]  674 	ld	xl, a
      0002F1 1F 01            [ 2]  675 	ldw	(0x01, sp), x
                                    676 ;	lib/STM8L10x_StdPeriph_Driver/src/stm8l10x_i2c.c: 768: flag2 = I2C->SR3;
      0002F3 AE 52 19         [ 2]  677 	ldw	x, #0x5219
      0002F6 F6               [ 1]  678 	ld	a, (x)
      0002F7 5F               [ 1]  679 	clrw	x
      0002F8 97               [ 1]  680 	ld	xl, a
                                    681 ;	lib/STM8L10x_StdPeriph_Driver/src/stm8l10x_i2c.c: 771: lastevent = ((uint16_t)((uint16_t)flag2 << 8) | (uint16_t)flag1);
      0002F9 58               [ 2]  682 	sllw	x
      0002FA 58               [ 2]  683 	sllw	x
      0002FB 58               [ 2]  684 	sllw	x
      0002FC 58               [ 2]  685 	sllw	x
      0002FD 58               [ 2]  686 	sllw	x
      0002FE 58               [ 2]  687 	sllw	x
      0002FF 58               [ 2]  688 	sllw	x
      000300 58               [ 2]  689 	sllw	x
      000301 9F               [ 1]  690 	ld	a, xl
      000302 1A 02            [ 1]  691 	or	a, (0x02, sp)
      000304 6B 06            [ 1]  692 	ld	(0x06, sp), a
      000306 9E               [ 1]  693 	ld	a, xh
      000307 1A 01            [ 1]  694 	or	a, (0x01, sp)
      000309 6B 03            [ 1]  695 	ld	(0x03, sp), a
      00030B 7B 06            [ 1]  696 	ld	a, (0x06, sp)
      00030D 6B 04            [ 1]  697 	ld	(0x04, sp), a
      00030F                        698 00103$:
                                    699 ;	lib/STM8L10x_StdPeriph_Driver/src/stm8l10x_i2c.c: 774: return (I2C_Event_TypeDef)lastevent;
      00030F 1E 03            [ 2]  700 	ldw	x, (0x03, sp)
      000311 5B 06            [ 2]  701 	addw	sp, #6
      000313 81               [ 4]  702 	ret
                                    703 ;	lib/STM8L10x_StdPeriph_Driver/src/stm8l10x_i2c.c: 805: FlagStatus I2C_GetFlagStatus(I2C_FLAG_TypeDef I2C_FLAG)
                                    704 ;	-----------------------------------------
                                    705 ;	 function I2C_GetFlagStatus
                                    706 ;	-----------------------------------------
      000314                        707 _I2C_GetFlagStatus:
      000314 52 02            [ 2]  708 	sub	sp, #2
                                    709 ;	lib/STM8L10x_StdPeriph_Driver/src/stm8l10x_i2c.c: 807: uint8_t tempreg = 0;
      000316 4F               [ 1]  710 	clr	a
      000317 95               [ 1]  711 	ld	xh, a
                                    712 ;	lib/STM8L10x_StdPeriph_Driver/src/stm8l10x_i2c.c: 815: regindex = (uint8_t)((uint16_t)I2C_FLAG >> 8);
      000318 7B 05            [ 1]  713 	ld	a, (0x05, sp)
      00031A 0F 01            [ 1]  714 	clr	(0x01, sp)
                                    715 ;	lib/STM8L10x_StdPeriph_Driver/src/stm8l10x_i2c.c: 818: switch (regindex)
      00031C A1 01            [ 1]  716 	cp	a, #0x01
      00031E 27 0A            [ 1]  717 	jreq	00101$
      000320 A1 02            [ 1]  718 	cp	a, #0x02
      000322 27 0D            [ 1]  719 	jreq	00102$
      000324 A1 03            [ 1]  720 	cp	a, #0x03
      000326 27 10            [ 1]  721 	jreq	00103$
      000328 20 13            [ 2]  722 	jra	00105$
                                    723 ;	lib/STM8L10x_StdPeriph_Driver/src/stm8l10x_i2c.c: 821: case 0x01:
      00032A                        724 00101$:
                                    725 ;	lib/STM8L10x_StdPeriph_Driver/src/stm8l10x_i2c.c: 822: tempreg = (uint8_t)I2C->SR1;
      00032A AE 52 17         [ 2]  726 	ldw	x, #0x5217
      00032D F6               [ 1]  727 	ld	a, (x)
      00032E 95               [ 1]  728 	ld	xh, a
                                    729 ;	lib/STM8L10x_StdPeriph_Driver/src/stm8l10x_i2c.c: 823: break;
      00032F 20 0C            [ 2]  730 	jra	00105$
                                    731 ;	lib/STM8L10x_StdPeriph_Driver/src/stm8l10x_i2c.c: 826: case 0x02:
      000331                        732 00102$:
                                    733 ;	lib/STM8L10x_StdPeriph_Driver/src/stm8l10x_i2c.c: 827: tempreg = (uint8_t)I2C->SR2;
      000331 AE 52 18         [ 2]  734 	ldw	x, #0x5218
      000334 F6               [ 1]  735 	ld	a, (x)
      000335 95               [ 1]  736 	ld	xh, a
                                    737 ;	lib/STM8L10x_StdPeriph_Driver/src/stm8l10x_i2c.c: 828: break;
      000336 20 05            [ 2]  738 	jra	00105$
                                    739 ;	lib/STM8L10x_StdPeriph_Driver/src/stm8l10x_i2c.c: 831: case 0x03:
      000338                        740 00103$:
                                    741 ;	lib/STM8L10x_StdPeriph_Driver/src/stm8l10x_i2c.c: 832: tempreg = (uint8_t)I2C->SR3;
      000338 AE 52 19         [ 2]  742 	ldw	x, #0x5219
      00033B F6               [ 1]  743 	ld	a, (x)
      00033C 95               [ 1]  744 	ld	xh, a
                                    745 ;	lib/STM8L10x_StdPeriph_Driver/src/stm8l10x_i2c.c: 836: }
      00033D                        746 00105$:
                                    747 ;	lib/STM8L10x_StdPeriph_Driver/src/stm8l10x_i2c.c: 839: if ((tempreg & (uint8_t)I2C_FLAG) != 0)
      00033D 7B 06            [ 1]  748 	ld	a, (0x06, sp)
      00033F 89               [ 2]  749 	pushw	x
      000340 14 01            [ 1]  750 	and	a, (1, sp)
      000342 85               [ 2]  751 	popw	x
      000343 4D               [ 1]  752 	tnz	a
      000344 27 04            [ 1]  753 	jreq	00107$
                                    754 ;	lib/STM8L10x_StdPeriph_Driver/src/stm8l10x_i2c.c: 842: bitstatus = SET;
      000346 A6 01            [ 1]  755 	ld	a, #0x01
      000348 20 01            [ 2]  756 	jra	00108$
      00034A                        757 00107$:
                                    758 ;	lib/STM8L10x_StdPeriph_Driver/src/stm8l10x_i2c.c: 847: bitstatus = RESET;
      00034A 4F               [ 1]  759 	clr	a
      00034B                        760 00108$:
                                    761 ;	lib/STM8L10x_StdPeriph_Driver/src/stm8l10x_i2c.c: 850: return bitstatus;
      00034B 5B 02            [ 2]  762 	addw	sp, #2
      00034D 81               [ 4]  763 	ret
                                    764 ;	lib/STM8L10x_StdPeriph_Driver/src/stm8l10x_i2c.c: 879: void I2C_ClearFlag(I2C_FLAG_TypeDef I2C_FLAG)
                                    765 ;	-----------------------------------------
                                    766 ;	 function I2C_ClearFlag
                                    767 ;	-----------------------------------------
      00034E                        768 _I2C_ClearFlag:
                                    769 ;	lib/STM8L10x_StdPeriph_Driver/src/stm8l10x_i2c.c: 886: flagpos = (uint16_t)I2C_FLAG & FLAG_Mask;
      00034E 7B 04            [ 1]  770 	ld	a, (0x04, sp)
      000350 97               [ 1]  771 	ld	xl, a
      000351 4F               [ 1]  772 	clr	a
      000352 95               [ 1]  773 	ld	xh, a
                                    774 ;	lib/STM8L10x_StdPeriph_Driver/src/stm8l10x_i2c.c: 888: I2C->SR2 = (uint8_t)((uint16_t)(~flagpos));
      000353 53               [ 2]  775 	cplw	x
      000354 9F               [ 1]  776 	ld	a, xl
      000355 AE 52 18         [ 2]  777 	ldw	x, #0x5218
      000358 F7               [ 1]  778 	ld	(x), a
      000359 81               [ 4]  779 	ret
                                    780 ;	lib/STM8L10x_StdPeriph_Driver/src/stm8l10x_i2c.c: 910: ITStatus I2C_GetITStatus(I2C_IT_TypeDef I2C_IT)
                                    781 ;	-----------------------------------------
                                    782 ;	 function I2C_GetITStatus
                                    783 ;	-----------------------------------------
      00035A                        784 _I2C_GetITStatus:
      00035A 52 0A            [ 2]  785 	sub	sp, #10
                                    786 ;	lib/STM8L10x_StdPeriph_Driver/src/stm8l10x_i2c.c: 913: __IO uint8_t enablestatus = 0;
      00035C 0F 03            [ 1]  787 	clr	(0x03, sp)
                                    788 ;	lib/STM8L10x_StdPeriph_Driver/src/stm8l10x_i2c.c: 919: tempregister = (uint8_t)( ((uint16_t)((uint16_t)I2C_IT & ITEN_Mask)) >> 8);
      00035E 0F 0A            [ 1]  789 	clr	(0x0a, sp)
      000360 7B 0D            [ 1]  790 	ld	a, (0x0d, sp)
      000362 A4 07            [ 1]  791 	and	a, #0x07
      000364 6B 09            [ 1]  792 	ld	(0x09, sp), a
      000366 7B 09            [ 1]  793 	ld	a, (0x09, sp)
      000368 6B 08            [ 1]  794 	ld	(0x08, sp), a
      00036A 4F               [ 1]  795 	clr	a
      00036B 7B 08            [ 1]  796 	ld	a, (0x08, sp)
      00036D 6B 06            [ 1]  797 	ld	(0x06, sp), a
      00036F 7B 06            [ 1]  798 	ld	a, (0x06, sp)
      000371 6B 02            [ 1]  799 	ld	(0x02, sp), a
      000373 4F               [ 1]  800 	clr	a
      000374 6B 01            [ 1]  801 	ld	(0x01, sp), a
                                    802 ;	lib/STM8L10x_StdPeriph_Driver/src/stm8l10x_i2c.c: 922: enablestatus = (uint8_t)(I2C->ITR & ( uint8_t)tempregister);
      000376 AE 52 1A         [ 2]  803 	ldw	x, #0x521a
      000379 F6               [ 1]  804 	ld	a, (x)
      00037A 88               [ 1]  805 	push	a
      00037B 7B 03            [ 1]  806 	ld	a, (0x03, sp)
      00037D 6B 06            [ 1]  807 	ld	(0x06, sp), a
      00037F 84               [ 1]  808 	pop	a
      000380 14 05            [ 1]  809 	and	a, (0x05, sp)
      000382 6B 03            [ 1]  810 	ld	(0x03, sp), a
                                    811 ;	lib/STM8L10x_StdPeriph_Driver/src/stm8l10x_i2c.c: 924: if ((uint16_t)((uint16_t)I2C_IT & REGISTER_Mask) == REGISTER_SR1_Index)
      000384 4F               [ 1]  812 	clr	a
      000385 97               [ 1]  813 	ld	xl, a
      000386 7B 0D            [ 1]  814 	ld	a, (0x0d, sp)
      000388 A4 30            [ 1]  815 	and	a, #0x30
      00038A 95               [ 1]  816 	ld	xh, a
                                    817 ;	lib/STM8L10x_StdPeriph_Driver/src/stm8l10x_i2c.c: 927: if (((I2C->SR1 & (uint8_t)I2C_IT) != RESET) && enablestatus)
      00038B 7B 0E            [ 1]  818 	ld	a, (0x0e, sp)
      00038D 6B 04            [ 1]  819 	ld	(0x04, sp), a
                                    820 ;	lib/STM8L10x_StdPeriph_Driver/src/stm8l10x_i2c.c: 924: if ((uint16_t)((uint16_t)I2C_IT & REGISTER_Mask) == REGISTER_SR1_Index)
      00038F A3 01 00         [ 2]  821 	cpw	x, #0x0100
      000392 26 14            [ 1]  822 	jrne	00110$
                                    823 ;	lib/STM8L10x_StdPeriph_Driver/src/stm8l10x_i2c.c: 927: if (((I2C->SR1 & (uint8_t)I2C_IT) != RESET) && enablestatus)
      000394 AE 52 17         [ 2]  824 	ldw	x, #0x5217
      000397 F6               [ 1]  825 	ld	a, (x)
      000398 14 04            [ 1]  826 	and	a, (0x04, sp)
      00039A 4D               [ 1]  827 	tnz	a
      00039B 27 08            [ 1]  828 	jreq	00102$
      00039D 0D 03            [ 1]  829 	tnz	(0x03, sp)
      00039F 27 04            [ 1]  830 	jreq	00102$
                                    831 ;	lib/STM8L10x_StdPeriph_Driver/src/stm8l10x_i2c.c: 930: bitstatus = SET;
      0003A1 A6 01            [ 1]  832 	ld	a, #0x01
      0003A3 20 15            [ 2]  833 	jra	00111$
      0003A5                        834 00102$:
                                    835 ;	lib/STM8L10x_StdPeriph_Driver/src/stm8l10x_i2c.c: 935: bitstatus = RESET;
      0003A5 4F               [ 1]  836 	clr	a
      0003A6 20 12            [ 2]  837 	jra	00111$
      0003A8                        838 00110$:
                                    839 ;	lib/STM8L10x_StdPeriph_Driver/src/stm8l10x_i2c.c: 941: if (((I2C->SR2 & (uint8_t)I2C_IT) != RESET) && enablestatus)
      0003A8 AE 52 18         [ 2]  840 	ldw	x, #0x5218
      0003AB F6               [ 1]  841 	ld	a, (x)
      0003AC 14 04            [ 1]  842 	and	a, (0x04, sp)
      0003AE 4D               [ 1]  843 	tnz	a
      0003AF 27 08            [ 1]  844 	jreq	00106$
      0003B1 0D 03            [ 1]  845 	tnz	(0x03, sp)
      0003B3 27 04            [ 1]  846 	jreq	00106$
                                    847 ;	lib/STM8L10x_StdPeriph_Driver/src/stm8l10x_i2c.c: 944: bitstatus = SET;
      0003B5 A6 01            [ 1]  848 	ld	a, #0x01
      0003B7 20 01            [ 2]  849 	jra	00111$
      0003B9                        850 00106$:
                                    851 ;	lib/STM8L10x_StdPeriph_Driver/src/stm8l10x_i2c.c: 949: bitstatus = RESET;
      0003B9 4F               [ 1]  852 	clr	a
      0003BA                        853 00111$:
                                    854 ;	lib/STM8L10x_StdPeriph_Driver/src/stm8l10x_i2c.c: 953: return  bitstatus;
      0003BA 5B 0A            [ 2]  855 	addw	sp, #10
      0003BC 81               [ 4]  856 	ret
                                    857 ;	lib/STM8L10x_StdPeriph_Driver/src/stm8l10x_i2c.c: 982: void I2C_ClearITPendingBit(I2C_IT_TypeDef I2C_IT)
                                    858 ;	-----------------------------------------
                                    859 ;	 function I2C_ClearITPendingBit
                                    860 ;	-----------------------------------------
      0003BD                        861 _I2C_ClearITPendingBit:
                                    862 ;	lib/STM8L10x_StdPeriph_Driver/src/stm8l10x_i2c.c: 990: flagpos = (uint16_t)I2C_IT & FLAG_Mask;
      0003BD 7B 04            [ 1]  863 	ld	a, (0x04, sp)
      0003BF 97               [ 1]  864 	ld	xl, a
      0003C0 4F               [ 1]  865 	clr	a
      0003C1 95               [ 1]  866 	ld	xh, a
                                    867 ;	lib/STM8L10x_StdPeriph_Driver/src/stm8l10x_i2c.c: 993: I2C->SR2 = (uint8_t)((uint16_t)~flagpos);
      0003C2 53               [ 2]  868 	cplw	x
      0003C3 9F               [ 1]  869 	ld	a, xl
      0003C4 AE 52 18         [ 2]  870 	ldw	x, #0x5218
      0003C7 F7               [ 1]  871 	ld	(x), a
      0003C8 81               [ 4]  872 	ret
                                    873 	.area CODE
                                    874 	.area INITIALIZER
                                    875 	.area CABS (ABS)
